target datalayout = "e-m:e-p270:32:32-p271:32:32-p272:64:64-i64:64-i128:128-f80:128-n8:16:32:64-S128"
target triple = "x86_64-pc-linux-gnu"

%"class.cv::rgbd::RgbdPlane" = type { %"class.cv::Algorithm", i32, i32, i32, double, double, double, double }
%"class.cv::Algorithm" = type { ptr }

; Function Attrs: mustprogress uwtable
define void @_ZN2cv4rgbd9RgbdPlaneC2Eiiidddd(ptr noundef nonnull align 8 dereferenceable(56) %0, i32 noundef %1, i32 noundef %2, i32 noundef %3, double noundef %4, double noundef %5, double noundef %6, double noundef %7) unnamed_addr #4 align 2 {
  %9 = alloca ptr, align 8
  %10 = alloca i32, align 4
  %11 = alloca i32, align 4
  %12 = alloca i32, align 4
  %13 = alloca double, align 8
  %14 = alloca double, align 8
  %15 = alloca double, align 8
  %16 = alloca double, align 8
  store ptr %0, ptr %9, align 8
  store i32 %1, ptr %10, align 4
  store i32 %2, ptr %11, align 4
  store i32 %3, ptr %12, align 4
  store double %4, ptr %13, align 8
  store double %5, ptr %14, align 8
  store double %6, ptr %15, align 8
  store double %7, ptr %16, align 8
  %17 = load ptr, ptr %9, align 8
  call void @_ZN2cv9AlgorithmC2Ev(ptr noundef nonnull align 8 dereferenceable(8) %17)
  store ptr getelementptr inbounds inrange(-16, 64) ({ [10 x ptr] }, ptr @_ZTVN2cv4rgbd9RgbdPlaneE, i32 0, i32 0, i32 2), ptr %17, align 8
  %18 = getelementptr inbounds %"class.cv::rgbd::RgbdPlane", ptr %17, i32 0, i32 1
  %19 = load i32, ptr %10, align 4
  store i32 %19, ptr %18, align 8
  %20 = getelementptr inbounds %"class.cv::rgbd::RgbdPlane", ptr %17, i32 0, i32 2
  %21 = load i32, ptr %11, align 4
  store i32 %21, ptr %20, align 4
  %22 = getelementptr inbounds %"class.cv::rgbd::RgbdPlane", ptr %17, i32 0, i32 3
  %23 = load i32, ptr %12, align 4
  store i32 %23, ptr %22, align 8
  %24 = getelementptr inbounds %"class.cv::rgbd::RgbdPlane", ptr %17, i32 0, i32 4
  %25 = load double, ptr %13, align 8
  store double %25, ptr %24, align 8
  %26 = getelementptr inbounds %"class.cv::rgbd::RgbdPlane", ptr %17, i32 0, i32 5
  %27 = load double, ptr %14, align 8
  store double %27, ptr %26, align 8
  %28 = getelementptr inbounds %"class.cv::rgbd::RgbdPlane", ptr %17, i32 0, i32 6
  %29 = load double, ptr %15, align 8
  store double %29, ptr %28, align 8
  %30 = getelementptr inbounds %"class.cv::rgbd::RgbdPlane", ptr %17, i32 0, i32 7
  %31 = load double, ptr %16, align 8
  store double %31, ptr %30, align 8
  ret void
}