; Function Attrs: mustprogress uwtable
define void @_ZN2cv4rgbd9RgbdPlaneC2Eiiidddd(ptr noundef nonnull align 8 dereferenceable(56) %0, i32 noundef %1, i32 noundef %2, i32 noundef %3, double noundef %4, double noundef %5, double noundef %6, double noundef %7) unnamed_addr #3 align 2 {
  tail call void @_ZN2cv9AlgorithmC2Ev(ptr noundef nonnull align 8 dereferenceable(8) %0)
  store ptr getelementptr inbounds inrange(-16, 64) (i8, ptr @_ZTVN2cv4rgbd9RgbdPlaneE, i64 16), ptr %0, align 8
  %9 = getelementptr inbounds i8, ptr %0, i64 8
  store i32 %1, ptr %9, align 8
  %10 = getelementptr inbounds i8, ptr %0, i64 12
  store i32 %2, ptr %10, align 4
  %11 = getelementptr inbounds i8, ptr %0, i64 16
  store i32 %3, ptr %11, align 8
  %12 = getelementptr inbounds i8, ptr %0, i64 24
  store double %4, ptr %12, align 8
  %13 = getelementptr inbounds i8, ptr %0, i64 32
  store double %5, ptr %13, align 8
  %14 = getelementptr inbounds i8, ptr %0, i64 40
  store double %6, ptr %14, align 8
  %15 = getelementptr inbounds i8, ptr %0, i64 48
  store double %7, ptr %15, align 8
  ret void
}